target datalayout = "e-m:e-p270:32:32-p271:32:32-p272:64:64-i64:64-i128:128-f80:128-n8:16:32:64-S128"
target triple = "x86_64-pc-linux-gnu"

%struct._MAD = type { i8, i8, i8, i8, i16, i8, i8, i64, i16, i16, i32 }

@hf_opa_HFICongestionControlTable = internal global i32 0, align 4
@hf_opa_HFICongestionControlTable_CCTI_Limit = internal global i32 0, align 4
@hf_opa_HFICongestionControlTable_CCT_Shift = internal global i32 0, align 4
@hf_opa_HFICongestionControlTable_CCT_Multiplier = internal global i32 0, align 4
@ett_hficongestioncontroltable = internal global i32 0, align 4
@ett_hficongestioncontroltable_block = internal global i32 0, align 4
@.str.2329 = private unnamed_addr constant [6 x i8] c"%3u: \00", align 1
@.str.2331 = private unnamed_addr constant [6 x i8] c"     \00", align 1
@.str.2367 = private unnamed_addr constant [38 x i8] c"HFI Congestion Control Table Block %u\00", align 1

; Function Attrs: null_pointer_is_valid sspstrong uwtable
define internal i32 @parse_HFICongestionControlTable(ptr noundef %0, ptr noundef %1, ptr noundef %2, ptr noundef %3) #0 {
  %5 = alloca i32, align 4
  %6 = alloca ptr, align 8
  %7 = alloca ptr, align 8
  %8 = alloca ptr, align 8
  %9 = alloca ptr, align 8
  %10 = alloca i32, align 4
  %11 = alloca ptr, align 8
  %12 = alloca ptr, align 8
  %13 = alloca ptr, align 8
  %14 = alloca ptr, align 8
  %15 = alloca i32, align 4
  %16 = alloca i32, align 4
  %17 = alloca i32, align 4
  %18 = alloca i32, align 4
  %19 = alloca i32, align 4
  store ptr %0, ptr %6, align 8
  store ptr %1, ptr %7, align 8
  store ptr %2, ptr %8, align 8
  store ptr %3, ptr %9, align 8
  call void @llvm.lifetime.start.p0(i64 4, ptr %10) #7
  %20 = load ptr, ptr %8, align 8
  %21 = load i32, ptr %20, align 4
  store i32 %21, ptr %10, align 4
  call void @llvm.lifetime.start.p0(i64 8, ptr %11) #7
  call void @llvm.lifetime.start.p0(i64 8, ptr %12) #7
  call void @llvm.lifetime.start.p0(i64 8, ptr %13) #7
  call void @llvm.lifetime.start.p0(i64 8, ptr %14) #7
  call void @llvm.lifetime.start.p0(i64 4, ptr %15) #7
  call void @llvm.lifetime.start.p0(i64 4, ptr %16) #7
  call void @llvm.lifetime.start.p0(i64 4, ptr %17) #7
  call void @llvm.lifetime.start.p0(i64 4, ptr %18) #7
  %22 = load ptr, ptr %6, align 8
  %23 = icmp ne ptr %22, null
  br i1 %23, label %24, label %36

24:                                               ; preds = %4
  %25 = load ptr, ptr %9, align 8
  %26 = getelementptr inbounds nuw %struct._MAD, ptr %25, i32 0, i32 3
  %27 = load i8, ptr %26, align 1
  %28 = zext i8 %27 to i32
  %29 = icmp eq i32 %28, 1
  br i1 %29, label %36, label %30

30:                                               ; preds = %24
  %31 = load ptr, ptr %9, align 8
  %32 = getelementptr inbounds nuw %struct._MAD, ptr %31, i32 0, i32 3
  %33 = load i8, ptr %32, align 1
  %34 = zext i8 %33 to i32
  %35 = icmp eq i32 %34, 18
  br i1 %35, label %36, label %39

36:                                               ; preds = %30, %24, %4
  %37 = load ptr, ptr %8, align 8
  %38 = load i32, ptr %37, align 4
  store i32 %38, ptr %5, align 4
  store i32 1, ptr %19, align 4
  br label %122

39:                                               ; preds = %30
  %40 = load ptr, ptr %9, align 8
  %41 = getelementptr inbounds nuw %struct._MAD, ptr %40, i32 0, i32 1
  %42 = load i8, ptr %41, align 1
  %43 = zext i8 %42 to i32
  %44 = icmp eq i32 %43, 3
  br i1 %44, label %45, label %51

45:                                               ; preds = %39
  store i32 1, ptr %17, align 4
  %46 = load ptr, ptr %7, align 8
  %47 = load i32, ptr %10, align 4
  %48 = sub i32 %47, 4
  %49 = call zeroext i16 @tvb_get_ntohs(ptr noundef %46, i32 noundef %48)
  %50 = zext i16 %49 to i32
  store i32 %50, ptr %18, align 4
  br label %61

51:                                               ; preds = %39
  %52 = load ptr, ptr %9, align 8
  %53 = getelementptr inbounds nuw %struct._MAD, ptr %52, i32 0, i32 10
  %54 = load i32, ptr %53, align 4
  %55 = and i32 %54, -16777216
  %56 = lshr i32 %55, 24
  store i32 %56, ptr %17, align 4
  %57 = load ptr, ptr %9, align 8
  %58 = getelementptr inbounds nuw %struct._MAD, ptr %57, i32 0, i32 10
  %59 = load i32, ptr %58, align 4
  %60 = and i32 %59, 255
  store i32 %60, ptr %18, align 4
  br label %61

61:                                               ; preds = %51, %45
  %62 = load ptr, ptr %6, align 8
  %63 = load i32, ptr @hf_opa_HFICongestionControlTable, align 4
  %64 = load ptr, ptr %7, align 8
  %65 = load i32, ptr %10, align 4
  %66 = load i32, ptr %17, align 4
  %67 = mul i32 128, %66
  %68 = add i32 2, %67
  %69 = call ptr @proto_tree_add_item(ptr noundef %62, i32 noundef %63, ptr noundef %64, i32 noundef %65, i32 noundef %68, i32 noundef 0)
  store ptr %69, ptr %11, align 8
  %70 = load ptr, ptr %11, align 8
  %71 = load i32, ptr @ett_hficongestioncontroltable, align 4
  %72 = call ptr @proto_item_add_subtree(ptr noundef %70, i32 noundef %71)
  store ptr %72, ptr %12, align 8
  %73 = load ptr, ptr %12, align 8
  %74 = load i32, ptr @hf_opa_HFICongestionControlTable_CCTI_Limit, align 4
  %75 = load ptr, ptr %7, align 8
  %76 = load i32, ptr %10, align 4
  %77 = call ptr @proto_tree_add_item(ptr noundef %73, i32 noundef %74, ptr noundef %75, i32 noundef %76, i32 noundef 2, i32 noundef 0)
  %78 = load i32, ptr %10, align 4
  %79 = add i32 %78, 2
  store i32 %79, ptr %10, align 4
  %80 = load i32, ptr %18, align 4
  store i32 %80, ptr %15, align 4
  br label %81

81:                                               ; preds = %117, %61
  %82 = load i32, ptr %15, align 4
  %83 = load i32, ptr %18, align 4
  %84 = load i32, ptr %17, align 4
  %85 = add i32 %83, %84
  %86 = icmp ult i32 %82, %85
  br i1 %86, label %87, label %120

87:                                               ; preds = %81
  %88 = load ptr, ptr %12, align 8
  %89 = load ptr, ptr %7, align 8
  %90 = load i32, ptr %10, align 4
  %91 = load i32, ptr @ett_hficongestioncontroltable_block, align 4
  %92 = load i32, ptr %15, align 4
  %93 = call ptr (ptr, ptr, i32, i32, i32, ptr, ptr, ...) @proto_tree_add_subtree_format(ptr noundef %88, ptr noundef %89, i32 noundef %90, i32 noundef 128, i32 noundef %91, ptr noundef null, ptr noundef @.str.2367, i32 noundef %92)
  store ptr %93, ptr %14, align 8
  store i32 0, ptr %16, align 4
  br label %94

94:                                               ; preds = %113, %87
  %95 = load i32, ptr %16, align 4
  %96 = icmp ult i32 %95, 64
  br i1 %96, label %97, label %116

97:                                               ; preds = %94
  %98 = load ptr, ptr %14, align 8
  %99 = load i32, ptr @hf_opa_HFICongestionControlTable_CCT_Shift, align 4
  %100 = load ptr, ptr %7, align 8
  %101 = load i32, ptr %10, align 4
  %102 = call ptr @proto_tree_add_item(ptr noundef %98, i32 noundef %99, ptr noundef %100, i32 noundef %101, i32 noundef 2, i32 noundef 0)
  store ptr %102, ptr %13, align 8
  %103 = load ptr, ptr %13, align 8
  %104 = load i32, ptr %16, align 4
  call void (ptr, ptr, ...) @proto_item_prepend_text(ptr noundef %103, ptr noundef @.str.2329, i32 noundef %104)
  %105 = load ptr, ptr %14, align 8
  %106 = load i32, ptr @hf_opa_HFICongestionControlTable_CCT_Multiplier, align 4
  %107 = load ptr, ptr %7, align 8
  %108 = load i32, ptr %10, align 4
  %109 = call ptr @proto_tree_add_item(ptr noundef %105, i32 noundef %106, ptr noundef %107, i32 noundef %108, i32 noundef 2, i32 noundef 0)
  store ptr %109, ptr %13, align 8
  %110 = load i32, ptr %10, align 4
  %111 = add i32 %110, 2
  store i32 %111, ptr %10, align 4
  %112 = load ptr, ptr %13, align 8
  call void (ptr, ptr, ...) @proto_item_prepend_text(ptr noundef %112, ptr noundef @.str.2331)
  br label %113

113:                                              ; preds = %97
  %114 = load i32, ptr %16, align 4
  %115 = add i32 %114, 1
  store i32 %115, ptr %16, align 4
  br label %94, !llvm.loop !43

116:                                              ; preds = %94
  br label %117

117:                                              ; preds = %116
  %118 = load i32, ptr %15, align 4
  %119 = add i32 %118, 1
  store i32 %119, ptr %15, align 4
  br label %81, !llvm.loop !44

120:                                              ; preds = %81
  %121 = load i32, ptr %10, align 4
  store i32 %121, ptr %5, align 4
  store i32 1, ptr %19, align 4
  br label %122

122:                                              ; preds = %120, %36
  call void @llvm.lifetime.end.p0(i64 4, ptr %18) #7
  call void @llvm.lifetime.end.p0(i64 4, ptr %17) #7
  call void @llvm.lifetime.end.p0(i64 4, ptr %16) #7
  call void @llvm.lifetime.end.p0(i64 4, ptr %15) #7
  call void @llvm.lifetime.end.p0(i64 8, ptr %14) #7
  call void @llvm.lifetime.end.p0(i64 8, ptr %13) #7
  call void @llvm.lifetime.end.p0(i64 8, ptr %12) #7
  call void @llvm.lifetime.end.p0(i64 8, ptr %11) #7
  call void @llvm.lifetime.end.p0(i64 4, ptr %10) #7
  %123 = load i32, ptr %5, align 4
  ret i32 %123
}